target datalayout = "e-m:e-p270:32:32-p271:32:32-p272:64:64-i64:64-i128:128-f80:128-n8:16:32:64-S128"
target triple = "x86_64-pc-linux-gnu"

%"class.icu_77::UObject" = type { ptr }
%"class.icu_77::Locale" = type <{ %"class.icu_77::UObject", [12 x i8], [6 x i8], [4 x i8], [2 x i8], i32, [4 x i8], ptr, [157 x i8], [3 x i8], ptr, i8, [7 x i8] }>
%"class.icu_77::number::SimpleNumberFormatter" = type { i32, ptr, ptr, ptr }
%"struct.icu_77::number::impl::USimpleNumberFormatterData" = type { %"class.icu_77::IcuCApiHelper.15", %"class.icu_77::number::SimpleNumberFormatter" }
%"class.icu_77::IcuCApiHelper.15" = type { i32 }

; Function Attrs: mustprogress nounwind uwtable
define linkonce_odr void @_ZN6icu_776number21SimpleNumberFormatterC2Ev(ptr noundef nonnull align 8 dereferenceable(32) %0) unnamed_addr #0 comdat align 2 {
  %2 = alloca ptr, align 8
  store ptr %0, ptr %2, align 8, !tbaa !139
  %3 = load ptr, ptr %2, align 8
  %4 = getelementptr inbounds nuw %"class.icu_77::number::SimpleNumberFormatter", ptr %3, i32 0, i32 0
  store i32 2, ptr %4, align 8, !tbaa !141
  %5 = getelementptr inbounds nuw %"class.icu_77::number::SimpleNumberFormatter", ptr %3, i32 0, i32 1
  store ptr null, ptr %5, align 8, !tbaa !147
  %6 = getelementptr inbounds nuw %"class.icu_77::number::SimpleNumberFormatter", ptr %3, i32 0, i32 2
  store ptr null, ptr %6, align 8, !tbaa !148
  %7 = getelementptr inbounds nuw %"class.icu_77::number::SimpleNumberFormatter", ptr %3, i32 0, i32 3
  store ptr null, ptr %7, align 8, !tbaa !149
  ret void
}

; Function Attrs: inlinehint mustprogress nounwind uwtable
define linkonce_odr void @_ZN6icu_7713IcuCApiHelperI22USimpleNumberFormatterNS_6number4impl26USimpleNumberFormatterDataELi1397638656EEC2Ev(ptr noundef nonnull align 4 dereferenceable(4) %0) unnamed_addr #2 comdat align 2 {
  %2 = alloca ptr, align 8
  store ptr %0, ptr %2, align 8, !tbaa !150
  %3 = load ptr, ptr %2, align 8
  %4 = getelementptr inbounds nuw %"class.icu_77::IcuCApiHelper.15", ptr %3, i32 0, i32 0
  store i32 1397638656, ptr %4, align 4, !tbaa !155
  ret void
}

; Function Attrs: mustprogress nounwind uwtable
define linkonce_odr noundef ptr @_ZN6icu_7713IcuCApiHelperI22USimpleNumberFormatterNS_6number4impl26USimpleNumberFormatterDataELi1397638656EE10exportForCEv(ptr noundef nonnull align 4 dereferenceable(4) %0) #0 comdat align 2 {
  %2 = alloca ptr, align 8
  store ptr %0, ptr %2, align 8, !tbaa !150
  %3 = load ptr, ptr %2, align 8
  ret ptr %3
}

; Function Attrs: mustprogress nounwind uwtable
define linkonce_odr void @_ZN6icu_776number21SimpleNumberFormatterD2Ev(ptr noundef nonnull align 8 dereferenceable(32) %0) unnamed_addr #0 comdat align 2 personality ptr @__gxx_personality_v0 {
  %2 = alloca ptr, align 8
  store ptr %0, ptr %2, align 8, !tbaa !139
  %3 = load ptr, ptr %2, align 8
  invoke void @_ZN6icu_776number21SimpleNumberFormatter7cleanupEv(ptr noundef nonnull align 8 dereferenceable(32) %3)
          to label %4 unwind label %5

4:                                                ; preds = %1
  ret void

5:                                                ; preds = %1
  %6 = landingpad { ptr, i32 }
          catch ptr null
  %7 = extractvalue { ptr, i32 } %6, 0
  call void @__clang_call_terminate(ptr %7) #13
  unreachable
}

; Function Attrs: mustprogress nounwind uwtable
define linkonce_odr noundef nonnull align 8 dereferenceable(32) ptr @_ZN6icu_776number21SimpleNumberFormatteraSEOS1_(ptr noundef nonnull align 8 dereferenceable(32) %0, ptr noundef nonnull align 8 dereferenceable(32) %1) #0 comdat align 2 personality ptr @__gxx_personality_v0 {
  %3 = alloca ptr, align 8
  %4 = alloca ptr, align 8
  store ptr %0, ptr %3, align 8, !tbaa !139
  store ptr %1, ptr %4, align 8, !tbaa !139
  %5 = load ptr, ptr %3, align 8
  invoke void @_ZN6icu_776number21SimpleNumberFormatter7cleanupEv(ptr noundef nonnull align 8 dereferenceable(32) %5)
          to label %6 unwind label %29

6:                                                ; preds = %2
  %7 = load ptr, ptr %4, align 8, !tbaa !139
  %8 = getelementptr inbounds nuw %"class.icu_77::number::SimpleNumberFormatter", ptr %7, i32 0, i32 0
  %9 = load i32, ptr %8, align 8, !tbaa !141
  %10 = getelementptr inbounds nuw %"class.icu_77::number::SimpleNumberFormatter", ptr %5, i32 0, i32 0
  store i32 %9, ptr %10, align 8, !tbaa !141
  %11 = load ptr, ptr %4, align 8, !tbaa !139
  %12 = getelementptr inbounds nuw %"class.icu_77::number::SimpleNumberFormatter", ptr %11, i32 0, i32 1
  %13 = load ptr, ptr %12, align 8, !tbaa !147
  %14 = getelementptr inbounds nuw %"class.icu_77::number::SimpleNumberFormatter", ptr %5, i32 0, i32 1
  store ptr %13, ptr %14, align 8, !tbaa !147
  %15 = load ptr, ptr %4, align 8, !tbaa !139
  %16 = getelementptr inbounds nuw %"class.icu_77::number::SimpleNumberFormatter", ptr %15, i32 0, i32 2
  %17 = load ptr, ptr %16, align 8, !tbaa !148
  %18 = getelementptr inbounds nuw %"class.icu_77::number::SimpleNumberFormatter", ptr %5, i32 0, i32 2
  store ptr %17, ptr %18, align 8, !tbaa !148
  %19 = load ptr, ptr %4, align 8, !tbaa !139
  %20 = getelementptr inbounds nuw %"class.icu_77::number::SimpleNumberFormatter", ptr %19, i32 0, i32 3
  %21 = load ptr, ptr %20, align 8, !tbaa !149
  %22 = getelementptr inbounds nuw %"class.icu_77::number::SimpleNumberFormatter", ptr %5, i32 0, i32 3
  store ptr %21, ptr %22, align 8, !tbaa !149
  %23 = load ptr, ptr %4, align 8, !tbaa !139
  %24 = getelementptr inbounds nuw %"class.icu_77::number::SimpleNumberFormatter", ptr %23, i32 0, i32 1
  store ptr null, ptr %24, align 8, !tbaa !147
  %25 = load ptr, ptr %4, align 8, !tbaa !139
  %26 = getelementptr inbounds nuw %"class.icu_77::number::SimpleNumberFormatter", ptr %25, i32 0, i32 2
  store ptr null, ptr %26, align 8, !tbaa !148
  %27 = load ptr, ptr %4, align 8, !tbaa !139
  %28 = getelementptr inbounds nuw %"class.icu_77::number::SimpleNumberFormatter", ptr %27, i32 0, i32 3
  store ptr null, ptr %28, align 8, !tbaa !149
  ret ptr %5

29:                                               ; preds = %2
  %30 = landingpad { ptr, i32 }
          catch ptr null
  %31 = extractvalue { ptr, i32 } %30, 0
  call void @__clang_call_terminate(ptr %31) #13
  unreachable
}

; Function Attrs: inlinehint mustprogress nounwind uwtable
define linkonce_odr void @_ZN6icu_776number4impl26USimpleNumberFormatterDataC2Ev(ptr noundef nonnull align 8 dereferenceable(40) %0) unnamed_addr #2 comdat align 2 {
  %2 = alloca ptr, align 8
  store ptr %0, ptr %2, align 8, !tbaa !137
  %3 = load ptr, ptr %2, align 8
  call void @_ZN6icu_7713IcuCApiHelperI22USimpleNumberFormatterNS_6number4impl26USimpleNumberFormatterDataELi1397638656EEC2Ev(ptr noundef nonnull align 4 dereferenceable(4) %3) #11
  %4 = getelementptr inbounds nuw %"struct.icu_77::number::impl::USimpleNumberFormatterData", ptr %3, i32 0, i32 1
  call void @_ZN6icu_776number21SimpleNumberFormatterC2Ev(ptr noundef nonnull align 8 dereferenceable(32) %4) #11
  ret void
}

; Function Attrs: mustprogress uwtable
define ptr @usnumf_openForLocaleAndGroupingStrategy_77(ptr noundef %0, i32 noundef %1, ptr noundef %2) #1 personality ptr @__gxx_personality_v0 {
  %4 = alloca ptr, align 8
  %5 = alloca ptr, align 8
  %6 = alloca i32, align 4
  %7 = alloca ptr, align 8
  %8 = alloca ptr, align 8
  %9 = alloca i1, align 1
  %10 = alloca i32, align 4
  %11 = alloca %"class.icu_77::number::SimpleNumberFormatter", align 8
  %12 = alloca %"class.icu_77::Locale", align 8
  %13 = alloca ptr, align 8
  %14 = alloca i32, align 4
  store ptr %0, ptr %5, align 8, !tbaa !17
  store i32 %1, ptr %6, align 4, !tbaa !152
  store ptr %2, ptr %7, align 8, !tbaa !22
  call void @llvm.lifetime.start.p0(i64 8, ptr %8) #11
  %15 = call noundef ptr @_ZN6icu_777UMemorynwEm(i64 noundef 40) #11
  %16 = icmp eq ptr %15, null
  store i1 false, ptr %9, align 1
  br i1 %16, label %18, label %17

17:                                               ; preds = %3
  store i1 true, ptr %9, align 1
  call void @llvm.memset.p0.i64(ptr align 8 %15, i8 0, i64 40, i1 false)
  call void @_ZN6icu_776number4impl26USimpleNumberFormatterDataC2Ev(ptr noundef nonnull align 8 dereferenceable(40) %15) #11
  br label %18

18:                                               ; preds = %17, %3
  %19 = phi ptr [ %15, %17 ], [ null, %3 ]
  store ptr %19, ptr %8, align 8, !tbaa !137
  %20 = load ptr, ptr %8, align 8, !tbaa !137
  %21 = icmp eq ptr %20, null
  br i1 %21, label %22, label %24

22:                                               ; preds = %18
  %23 = load ptr, ptr %7, align 8, !tbaa !22
  store i32 7, ptr %23, align 4, !tbaa !15
  store ptr null, ptr %4, align 8
  store i32 1, ptr %10, align 4
  br label %38

24:                                               ; preds = %18
  call void @llvm.lifetime.start.p0(i64 32, ptr %11) #11
  call void @llvm.lifetime.start.p0(i64 224, ptr %12) #11
  %25 = load ptr, ptr %5, align 8, !tbaa !17
  call void @_ZN6icu_776LocaleC1EPKcS2_S2_S2_(ptr noundef nonnull align 8 dereferenceable(217) %12, ptr noundef %25, ptr noundef null, ptr noundef null, ptr noundef null)
  %26 = load i32, ptr %6, align 4, !tbaa !152
  %27 = load ptr, ptr %7, align 8, !tbaa !22
  invoke void @_ZN6icu_776number21SimpleNumberFormatter28forLocaleAndGroupingStrategyERKNS_6LocaleE23UNumberGroupingStrategyR10UErrorCode(ptr dead_on_unwind writable sret(%"class.icu_77::number::SimpleNumberFormatter") align 8 %11, ptr noundef nonnull align 8 dereferenceable(217) %12, i32 noundef %26, ptr noundef nonnull align 4 dereferenceable(4) %27)
          to label %28 unwind label %34

28:                                               ; preds = %24
  %29 = load ptr, ptr %8, align 8, !tbaa !137
  %30 = getelementptr inbounds nuw %"struct.icu_77::number::impl::USimpleNumberFormatterData", ptr %29, i32 0, i32 1
  %31 = call noundef nonnull align 8 dereferenceable(32) ptr @_ZN6icu_776number21SimpleNumberFormatteraSEOS1_(ptr noundef nonnull align 8 dereferenceable(32) %30, ptr noundef nonnull align 8 dereferenceable(32) %11) #11
  call void @_ZN6icu_776number21SimpleNumberFormatterD2Ev(ptr noundef nonnull align 8 dereferenceable(32) %11) #11
  call void @_ZN6icu_776LocaleD1Ev(ptr noundef nonnull align 8 dereferenceable(217) %12) #11
  call void @llvm.lifetime.end.p0(i64 224, ptr %12) #11
  call void @llvm.lifetime.end.p0(i64 32, ptr %11) #11
  %32 = load ptr, ptr %8, align 8, !tbaa !137
  %33 = call noundef ptr @_ZN6icu_7713IcuCApiHelperI22USimpleNumberFormatterNS_6number4impl26USimpleNumberFormatterDataELi1397638656EE10exportForCEv(ptr noundef nonnull align 4 dereferenceable(4) %32)
  store ptr %33, ptr %4, align 8
  store i32 1, ptr %10, align 4
  br label %38

34:                                               ; preds = %24
  %35 = landingpad { ptr, i32 }
          cleanup
  %36 = extractvalue { ptr, i32 } %35, 0
  store ptr %36, ptr %13, align 8
  %37 = extractvalue { ptr, i32 } %35, 1
  store i32 %37, ptr %14, align 4
  call void @_ZN6icu_776LocaleD1Ev(ptr noundef nonnull align 8 dereferenceable(217) %12) #11
  call void @llvm.lifetime.end.p0(i64 224, ptr %12) #11
  call void @llvm.lifetime.end.p0(i64 32, ptr %11) #11
  call void @llvm.lifetime.end.p0(i64 8, ptr %8) #11
  br label %40

38:                                               ; preds = %28, %22
  call void @llvm.lifetime.end.p0(i64 8, ptr %8) #11
  %39 = load ptr, ptr %4, align 8
  ret ptr %39

40:                                               ; preds = %34
  %41 = load ptr, ptr %13, align 8
  %42 = load i32, ptr %14, align 4
  %43 = insertvalue { ptr, i32 } poison, ptr %41, 0
  %44 = insertvalue { ptr, i32 } %43, i32 %42, 1
  resume { ptr, i32 } %44
}