; Function Attrs: mustprogress uwtable
define noundef ptr @usnumf_openForLocaleAndGroupingStrategy_77(ptr noundef %0, i32 noundef %1, ptr noundef %2) local_unnamed_addr #1 personality ptr @__gxx_personality_v0 {
  %4 = alloca %"class.icu_77::number::SimpleNumberFormatter", align 8
  %5 = alloca %"class.icu_77::Locale", align 8
  %6 = tail call noundef ptr @_ZN6icu_777UMemorynwEm(i64 noundef 40) #15
  %7 = icmp eq ptr %6, null
  br i1 %7, label %8, label %9

8:                                                ; preds = %3
  store i32 7, ptr %2, align 4, !tbaa !13
  br label %30

9:                                                ; preds = %3
  tail call void @llvm.memset.p0.i64(ptr noundef nonnull align 8 dereferenceable(40) %6, i8 0, i64 16, i1 false)
  store i32 1397638656, ptr %6, align 4, !tbaa !83
  %10 = getelementptr inbounds nuw i8, ptr %6, i64 8
  store i32 2, ptr %10, align 8, !tbaa !85
  %11 = getelementptr inbounds nuw i8, ptr %6, i64 16
  tail call void @llvm.memset.p0.i64(ptr noundef nonnull align 8 dereferenceable(24) %11, i8 0, i64 24, i1 false)
  call void @llvm.lifetime.start.p0(i64 32, ptr nonnull %4) #15
  call void @llvm.lifetime.start.p0(i64 224, ptr nonnull %5) #15
  call void @_ZN6icu_776LocaleC1EPKcS2_S2_S2_(ptr noundef nonnull align 8 dereferenceable(217) %5, ptr noundef %0, ptr noundef null, ptr noundef null, ptr noundef null)
  invoke void @_ZN6icu_776number21SimpleNumberFormatter28forLocaleAndGroupingStrategyERKNS_6LocaleE23UNumberGroupingStrategyR10UErrorCode(ptr dead_on_unwind nonnull writable sret(%"class.icu_77::number::SimpleNumberFormatter") align 8 %4, ptr noundef nonnull align 8 dereferenceable(217) %5, i32 noundef %1, ptr noundef nonnull align 4 dereferenceable(4) %2)
          to label %12 unwind label %28

12:                                               ; preds = %9
  invoke void @_ZN6icu_776number21SimpleNumberFormatter7cleanupEv(ptr noundef nonnull align 8 dereferenceable(32) %10)
          to label %_ZN6icu_776number21SimpleNumberFormatteraSEOS1_.exit unwind label %13

13:                                               ; preds = %12
  %14 = landingpad { ptr, i32 }
          catch ptr null
  %15 = extractvalue { ptr, i32 } %14, 0
  call void @__clang_call_terminate(ptr %15) #17
  unreachable

_ZN6icu_776number21SimpleNumberFormatteraSEOS1_.exit: ; preds = %12
  %16 = load i32, ptr %4, align 8, !tbaa !85
  store i32 %16, ptr %10, align 8, !tbaa !85
  %17 = getelementptr inbounds nuw i8, ptr %4, i64 8
  %18 = load ptr, ptr %17, align 8, !tbaa !91
  store ptr %18, ptr %11, align 8, !tbaa !91
  %19 = getelementptr inbounds nuw i8, ptr %4, i64 16
  %20 = load ptr, ptr %19, align 8, !tbaa !92
  %21 = getelementptr inbounds nuw i8, ptr %6, i64 24
  store ptr %20, ptr %21, align 8, !tbaa !92
  %22 = getelementptr inbounds nuw i8, ptr %4, i64 24
  %23 = load ptr, ptr %22, align 8, !tbaa !93
  %24 = getelementptr inbounds nuw i8, ptr %6, i64 32
  store ptr %23, ptr %24, align 8, !tbaa !93
  call void @llvm.memset.p0.i64(ptr noundef nonnull align 8 dereferenceable(24) %17, i8 0, i64 24, i1 false)
  invoke void @_ZN6icu_776number21SimpleNumberFormatter7cleanupEv(ptr noundef nonnull align 8 dereferenceable(32) %4)
          to label %_ZN6icu_776number21SimpleNumberFormatterD2Ev.exit unwind label %25

25:                                               ; preds = %_ZN6icu_776number21SimpleNumberFormatteraSEOS1_.exit
  %26 = landingpad { ptr, i32 }
          catch ptr null
  %27 = extractvalue { ptr, i32 } %26, 0
  call void @__clang_call_terminate(ptr %27) #17
  unreachable

_ZN6icu_776number21SimpleNumberFormatterD2Ev.exit: ; preds = %_ZN6icu_776number21SimpleNumberFormatteraSEOS1_.exit
  call void @_ZN6icu_776LocaleD1Ev(ptr noundef nonnull align 8 dereferenceable(217) %5) #15
  call void @llvm.lifetime.end.p0(i64 224, ptr nonnull %5) #15
  call void @llvm.lifetime.end.p0(i64 32, ptr nonnull %4) #15
  br label %30

28:                                               ; preds = %9
  %29 = landingpad { ptr, i32 }
          cleanup
  call void @_ZN6icu_776LocaleD1Ev(ptr noundef nonnull align 8 dereferenceable(217) %5) #15
  call void @llvm.lifetime.end.p0(i64 224, ptr nonnull %5) #15
  call void @llvm.lifetime.end.p0(i64 32, ptr nonnull %4) #15
  resume { ptr, i32 } %29

30:                                               ; preds = %_ZN6icu_776number21SimpleNumberFormatterD2Ev.exit, %8
  ret ptr %6
}